target datalayout = "e-m:e-p270:32:32-p271:32:32-p272:64:64-i64:64-i128:128-f80:128-n8:16:32:64-S128"
target triple = "x86_64-pc-linux-gnu"

; Function Attrs: mustprogress nounwind uwtable
define hidden noundef zeroext i8 @_ZN6Assimp3FBX4Util12DecodeBase64Ec(i8 noundef signext %0) #0 {
  %2 = alloca i8, align 1
  %3 = alloca i8, align 1
  %4 = alloca i8, align 1
  %5 = alloca i32, align 4
  store i8 %0, ptr %3, align 1
  call void @llvm.lifetime.start.p0(i64 1, ptr %4) #13
  %6 = load i8, ptr %3, align 1
  store i8 %6, ptr %4, align 1
  %7 = load i8, ptr %4, align 1
  %8 = zext i8 %7 to i32
  %9 = icmp sgt i32 %8, 127
  br i1 %9, label %10, label %11

10:                                               ; preds = %1
  store i8 -1, ptr %2, align 1
  store i32 1, ptr %5, align 4
  br label %16

11:                                               ; preds = %1
  %12 = load i8, ptr %4, align 1
  %13 = zext i8 %12 to i64
  %14 = getelementptr inbounds nuw [128 x i8], ptr @_ZN6Assimp3FBX4UtilL17base64DecodeTableE, i64 0, i64 %13
  %15 = load i8, ptr %14, align 1
  store i8 %15, ptr %2, align 1
  store i32 1, ptr %5, align 4
  br label %16

16:                                               ; preds = %11, %10
  call void @llvm.lifetime.end.p0(i64 1, ptr %4) #13
  %17 = load i8, ptr %2, align 1
  ret i8 %17
}

; Function Attrs: mustprogress nounwind uwtable
define hidden noundef i64 @_ZN6Assimp3FBX4Util12DecodeBase64EPKcmPhm(ptr noundef %0, i64 noundef %1, ptr noundef %2, i64 noundef %3) #0 {
  %5 = alloca i64, align 8
  %6 = alloca ptr, align 8
  %7 = alloca i64, align 8
  %8 = alloca ptr, align 8
  %9 = alloca i64, align 8
  %10 = alloca i64, align 8
  %11 = alloca i64, align 8
  %12 = alloca i32, align 4
  %13 = alloca i32, align 4
  %14 = alloca i64, align 8
  %15 = alloca i32, align 4
  %16 = alloca i8, align 1
  store ptr %0, ptr %6, align 8
  store i64 %1, ptr %7, align 8
  store ptr %2, ptr %8, align 8
  store i64 %3, ptr %9, align 8
  %17 = load i64, ptr %9, align 8
  %18 = icmp eq i64 %17, 0
  br i1 %18, label %22, label %19

19:                                               ; preds = %4
  %20 = load i64, ptr %7, align 8
  %21 = icmp ult i64 %20, 2
  br i1 %21, label %22, label %23

22:                                               ; preds = %19, %4
  store i64 0, ptr %5, align 8
  br label %100

23:                                               ; preds = %19
  call void @llvm.lifetime.start.p0(i64 8, ptr %10) #13
  %24 = load i64, ptr %7, align 8
  %25 = load ptr, ptr %6, align 8
  %26 = load i64, ptr %7, align 8
  %27 = sub i64 %26, 1
  %28 = getelementptr inbounds nuw i8, ptr %25, i64 %27
  %29 = load i8, ptr %28, align 1
  %30 = sext i8 %29 to i32
  %31 = icmp eq i32 %30, 61
  %32 = zext i1 %31 to i64
  %33 = sub i64 %24, %32
  %34 = load ptr, ptr %6, align 8
  %35 = load i64, ptr %7, align 8
  %36 = sub i64 %35, 2
  %37 = getelementptr inbounds nuw i8, ptr %34, i64 %36
  %38 = load i8, ptr %37, align 1
  %39 = sext i8 %38 to i32
  %40 = icmp eq i32 %39, 61
  %41 = zext i1 %40 to i64
  %42 = sub i64 %33, %41
  store i64 %42, ptr %10, align 8
  call void @llvm.lifetime.start.p0(i64 8, ptr %11) #13
  store i64 0, ptr %11, align 8
  call void @llvm.lifetime.start.p0(i64 4, ptr %12) #13
  store i32 0, ptr %12, align 4
  call void @llvm.lifetime.start.p0(i64 4, ptr %13) #13
  store i32 -8, ptr %13, align 4
  call void @llvm.lifetime.start.p0(i64 8, ptr %14) #13
  store i64 0, ptr %14, align 8
  br label %43

43:                                               ; preds = %92, %23
  %44 = load i64, ptr %14, align 8
  %45 = load i64, ptr %10, align 8
  %46 = icmp ult i64 %44, %45
  br i1 %46, label %47, label %51

47:                                               ; preds = %43
  %48 = load i64, ptr %11, align 8
  %49 = load i64, ptr %9, align 8
  %50 = icmp ult i64 %48, %49
  br label %51

51:                                               ; preds = %47, %43
  %52 = phi i1 [ false, %43 ], [ %50, %47 ]
  br i1 %52, label %54, label %53

53:                                               ; preds = %51
  store i32 2, ptr %15, align 4
  br label %95

54:                                               ; preds = %51
  call void @llvm.lifetime.start.p0(i64 1, ptr %16) #13
  %55 = load ptr, ptr %6, align 8
  %56 = load i64, ptr %14, align 8
  %57 = getelementptr inbounds nuw i8, ptr %55, i64 %56
  %58 = load i8, ptr %57, align 1
  %59 = call noundef zeroext i8 @_ZN6Assimp3FBX4Util12DecodeBase64Ec(i8 noundef signext %58)
  store i8 %59, ptr %16, align 1
  %60 = load i8, ptr %16, align 1
  %61 = zext i8 %60 to i32
  %62 = icmp eq i32 %61, 255
  br i1 %62, label %63, label %64

63:                                               ; preds = %54
  store i64 0, ptr %5, align 8
  store i32 1, ptr %15, align 4
  br label %89

64:                                               ; preds = %54
  %65 = load i32, ptr %12, align 4
  %66 = shl i32 %65, 6
  %67 = load i8, ptr %16, align 1
  %68 = zext i8 %67 to i32
  %69 = add nsw i32 %66, %68
  store i32 %69, ptr %12, align 4
  %70 = load i32, ptr %13, align 4
  %71 = add nsw i32 %70, 6
  store i32 %71, ptr %13, align 4
  %72 = load i32, ptr %13, align 4
  %73 = icmp sge i32 %72, 0
  br i1 %73, label %74, label %88

74:                                               ; preds = %64
  %75 = load i32, ptr %12, align 4
  %76 = load i32, ptr %13, align 4
  %77 = ashr i32 %75, %76
  %78 = and i32 %77, 255
  %79 = trunc i32 %78 to i8
  %80 = load ptr, ptr %8, align 8
  %81 = load i64, ptr %11, align 8
  %82 = add i64 %81, 1
  store i64 %82, ptr %11, align 8
  %83 = getelementptr inbounds nuw i8, ptr %80, i64 %81
  store i8 %79, ptr %83, align 1
  %84 = load i32, ptr %13, align 4
  %85 = sub nsw i32 %84, 8
  store i32 %85, ptr %13, align 4
  %86 = load i32, ptr %12, align 4
  %87 = and i32 %86, 4095
  store i32 %87, ptr %12, align 4
  br label %88

88:                                               ; preds = %74, %64
  store i32 0, ptr %15, align 4
  br label %89

89:                                               ; preds = %88, %63
  call void @llvm.lifetime.end.p0(i64 1, ptr %16) #13
  %90 = load i32, ptr %15, align 4
  switch i32 %90, label %95 [
    i32 0, label %91
  ]

91:                                               ; preds = %89
  br label %92

92:                                               ; preds = %91
  %93 = load i64, ptr %14, align 8
  %94 = add i64 %93, 1
  store i64 %94, ptr %14, align 8
  br label %43, !llvm.loop !3

95:                                               ; preds = %89, %53
  call void @llvm.lifetime.end.p0(i64 8, ptr %14) #13
  %96 = load i32, ptr %15, align 4
  switch i32 %96, label %99 [
    i32 2, label %97
  ]

97:                                               ; preds = %95
  %98 = load i64, ptr %11, align 8
  store i64 %98, ptr %5, align 8
  store i32 1, ptr %15, align 4
  br label %99

99:                                               ; preds = %97, %95
  call void @llvm.lifetime.end.p0(i64 4, ptr %13) #13
  call void @llvm.lifetime.end.p0(i64 4, ptr %12) #13
  call void @llvm.lifetime.end.p0(i64 8, ptr %11) #13
  call void @llvm.lifetime.end.p0(i64 8, ptr %10) #13
  br label %100

100:                                              ; preds = %99, %22
  %101 = load i64, ptr %5, align 8
  ret i64 %101
}