; Function Attrs: mustprogress nofree norecurse nosync nounwind memory(argmem: readwrite) uwtable
define hidden noundef i64 @_ZN6Assimp3FBX4Util12DecodeBase64EPKcmPhm(ptr noundef readonly captures(none) %0, i64 noundef %1, ptr noundef writeonly captures(none) %2, i64 noundef %3) local_unnamed_addr #5 {
  %5 = icmp eq i64 %3, 0
  %6 = icmp ult i64 %1, 2
  %or.cond = or i1 %6, %5
  br i1 %or.cond, label %.thread, label %7

7:                                                ; preds = %4
  %8 = getelementptr i8, ptr %0, i64 %1
  %9 = getelementptr i8, ptr %8, i64 -1
  %10 = load i8, ptr %9, align 1
  %11 = icmp eq i8 %10, 61
  %.neg = sext i1 %11 to i64
  %12 = add i64 %1, %.neg
  %13 = getelementptr i8, ptr %8, i64 -2
  %14 = load i8, ptr %13, align 1
  %15 = icmp eq i8 %14, 61
  %.neg48 = sext i1 %15 to i64
  %16 = add i64 %12, %.neg48
  %17 = icmp eq i64 %16, 0
  br i1 %17, label %.thread, label %.lr.ph

.lr.ph:                                           ; preds = %7, %37
  %.03262 = phi i64 [ %38, %37 ], [ 0, %7 ]
  %.03361 = phi i32 [ %.134, %37 ], [ -8, %7 ]
  %.03660 = phi i32 [ %.137, %37 ], [ 0, %7 ]
  %.03959 = phi i64 [ %.241, %37 ], [ 0, %7 ]
  %18 = getelementptr inbounds nuw i8, ptr %0, i64 %.03262
  %19 = load i8, ptr %18, align 1
  %20 = icmp slt i8 %19, 0
  br i1 %20, label %.thread, label %_ZN6Assimp3FBX4Util12DecodeBase64Ec.exit

_ZN6Assimp3FBX4Util12DecodeBase64Ec.exit:         ; preds = %.lr.ph
  %21 = zext nneg i8 %19 to i64
  %22 = getelementptr inbounds nuw [128 x i8], ptr @_ZN6Assimp3FBX4UtilL17base64DecodeTableE, i64 0, i64 %21
  %23 = load i8, ptr %22, align 1
  %.not = icmp eq i8 %23, -1
  br i1 %.not, label %.thread, label %24

24:                                               ; preds = %_ZN6Assimp3FBX4Util12DecodeBase64Ec.exit
  %25 = zext i8 %23 to i32
  %26 = shl i32 %.03660, 6
  %27 = add nsw i32 %26, %25
  %28 = add nsw i32 %.03361, 6
  %29 = icmp sgt i32 %.03361, -7
  br i1 %29, label %30, label %37

30:                                               ; preds = %24
  %31 = ashr i32 %27, %28
  %32 = trunc i32 %31 to i8
  %33 = add nuw i64 %.03959, 1
  %34 = getelementptr inbounds nuw i8, ptr %2, i64 %.03959
  store i8 %32, ptr %34, align 1
  %35 = add nsw i32 %.03361, -2
  %36 = and i32 %27, 4095
  br label %37

37:                                               ; preds = %30, %24
  %.241 = phi i64 [ %33, %30 ], [ %.03959, %24 ]
  %.137 = phi i32 [ %36, %30 ], [ %27, %24 ]
  %.134 = phi i32 [ %35, %30 ], [ %28, %24 ]
  %38 = add nuw i64 %.03262, 1
  %39 = icmp uge i64 %38, %16
  %40 = icmp uge i64 %.241, %3
  %.not51 = select i1 %39, i1 true, i1 %40
  br i1 %.not51, label %.thread, label %.lr.ph, !llvm.loop !43

.thread:                                          ; preds = %.lr.ph, %_ZN6Assimp3FBX4Util12DecodeBase64Ec.exit, %37, %7, %4
  %.0 = phi i64 [ 0, %4 ], [ 0, %7 ], [ 0, %.lr.ph ], [ 0, %_ZN6Assimp3FBX4Util12DecodeBase64Ec.exit ], [ %.241, %37 ]
  ret i64 %.0
}